Certificate:
    Data:
        Version: 3 (0x2)
        Serial Number:
            9b:ca:ac:b3:66:4b:56:dc
    Signature Algorithm: sha256WithRSAEncryption
        Issuer: C=JP, ST=Gunma, O=Slozsoft, CN=hello
        Validity
            Not Before: May  7 03:08:30 2018 GMT
            Not After : May  7 03:08:30 2019 GMT
        Subject: C=JP, ST=Gunma, O=Slozsoft, CN=localhost
        Subject Public Key Info:
            Public Key Algorithm: rsaEncryption
                Public-Key: (2048 bit)
                Modulus:
                    00:cb:e3:3b:1e:da:c1:fb:2b:4e:55:42:e8:96:a5:
                    c3:83:a7:59:70:0c:5b:fd:ea:8c:d5:81:2e:1e:ce:
                    c3:bf:45:65:8f:81:cf:d0:be:a0:ce:14:cb:dd:4d:
                    98:0a:f2:91:82:dc:b1:4e:47:1c:19:ae:eb:be:d4:
                    9a:0c:e8:dc:28:eb:86:c8:93:95:c8:cb:ad:f3:0e:
                    56:e8:3b:0f:5e:05:02:da:8d:90:88:20:77:48:98:
                    de:f0:f2:5f:6e:b2:a5:0d:72:b1:03:1e:dc:87:dc:
                    c7:2e:2d:02:f9:6f:13:51:11:59:73:10:72:fb:7a:
                    43:8a:ad:3d:cc:4f:35:0a:7b:4e:ab:f8:66:06:6b:
                    64:f4:91:d6:b8:b0:55:37:ff:14:b8:37:12:80:fd:
                    31:21:bb:23:64:7e:ab:a9:b5:cb:76:6c:a5:5f:ef:
                    50:56:94:a8:d3:43:3d:1c:6f:ed:67:79:96:8a:93:
                    3a:ef:92:71:4a:cd:e1:d6:df:fd:64:dd:d4:3d:01:
                    a0:f0:40:c2:66:c0:48:66:80:36:14:cb:cc:44:d5:
                    af:13:33:e7:10:00:e6:32:9d:a5:5f:75:58:19:d4:
                    d2:42:cb:cc:62:da:9f:8a:e4:c1:21:c3:0a:16:ce:
                    62:85:5d:e3:a9:b7:53:8d:93:35:62:6d:08:9c:17:
                    c0:b7
                Exponent: 65537 (0x10001)
        X509v3 extensions:
            X509v3 Basic Constraints: 
                CA:FALSE
            Netscape Comment: 
                OpenSSL Generated Certificate
            X509v3 Subject Key Identifier: 
                32:E6:B9:E4:DA:9A:D6:38:3A:6B:11:BE:02:C3:C0:C3:54:05:28:4A
            X509v3 Authority Key Identifier: 
                keyid:BF:7E:9A:46:87:35:D5:2D:D2:3A:8F:88:DF:06:A8:CB:90:3C:1E:7F

    Signature Algorithm: sha256WithRSAEncryption
         06:80:26:e6:bb:81:58:40:78:a1:e9:42:a6:38:1f:03:0a:2c:
         ab:53:af:2a:66:f1:3e:ba:97:5a:d7:b6:ad:d9:83:c2:e0:cf:
         7e:b3:6e:dd:22:4a:38:69:4a:92:ec:5c:99:24:6e:dd:7c:10:
         9c:b5:93:af:83:56:dc:de:80:2f:9d:59:5f:a2:7c:6e:df:be:
         0c:b3:3b:9f:7a:97:aa:11:1e:71:a7:f2:f5:a6:5a:16:3b:e7:
         16:d1:1a:ee:65:f5:3d:bb:be:f0:16:c5:32:17:6a:be:e8:4e:
         13:8d:31:5f:30:a8:51:7a:34:4d:06:d2:30:b4:14:ed:e9:6c:
         64:06:cd:9d:bb:86:10:0f:43:d2:a8:d2:d7:6e:21:53:fa:6a:
         de:83:aa:e0:8c:84:67:41:84:0a:b4:57:7e:cf:cf:38:66:98:
         8e:6c:7e:a9:cf:a1:78:57:e6:b0:af:63:a7:f2:db:33:2b:5d:
         72:ce:1e:7d:76:f5:6a:5e:1f:24:8c:44:e4:3f:77:c5:3f:1d:
         84:bd:aa:52:c0:82:dc:08:a4:a8:b0:ee:13:8f:ca:cc:ac:b4:
         59:8d:d5:a1:3c:38:ad:10:61:92:e8:47:3c:26:32:50:0f:fe:
         5d:d5:14:15:a2:1a:d4:84:b0:bf:fe:bd:07:1d:fa:66:b9:96:
         c5:17:d9:20
-----BEGIN CERTIFICATE-----
MIIDgjCCAmqgAwIBAgIJAJvKrLNmS1bcMA0GCSqGSIb3DQEBCwUAMEAxCzAJBgNV
BAYTAkpQMQ4wDAYDVQQIDAVHdW5tYTERMA8GA1UECgwIU2xvenNvZnQxDjAMBgNV
BAMMBWhlbGxvMB4XDTE4MDUwNzAzMDgzMFoXDTE5MDUwNzAzMDgzMFowRDELMAkG
A1UEBhMCSlAxDjAMBgNVBAgMBUd1bm1hMREwDwYDVQQKDAhTbG96c29mdDESMBAG
A1UEAwwJbG9jYWxob3N0MIIBIjANBgkqhkiG9w0BAQEFAAOCAQ8AMIIBCgKCAQEA
y+M7HtrB+ytOVULolqXDg6dZcAxb/eqM1YEuHs7Dv0Vlj4HP0L6gzhTL3U2YCvKR
gtyxTkccGa7rvtSaDOjcKOuGyJOVyMut8w5W6DsPXgUC2o2QiCB3SJje8PJfbrKl
DXKxAx7ch9zHLi0C+W8TURFZcxBy+3pDiq09zE81CntOq/hmBmtk9JHWuLBVN/8U
uDcSgP0xIbsjZH6rqbXLdmylX+9QVpSo00M9HG/tZ3mWipM675JxSs3h1t/9ZN3U
PQGg8EDCZsBIZoA2FMvMRNWvEzPnEADmMp2lX3VYGdTSQsvMYtqfiuTBIcMKFs5i
hV3jqbdTjZM1Ym0InBfAtwIDAQABo3sweTAJBgNVHRMEAjAAMCwGCWCGSAGG+EIB
DQQfFh1PcGVuU1NMIEdlbmVyYXRlZCBDZXJ0aWZpY2F0ZTAdBgNVHQ4EFgQUMua5
5Nqa1jg6axG+AsPAw1QFKEowHwYDVR0jBBgwFoAUv36aRoc11S3SOo+I3waoy5A8
Hn8wDQYJKoZIhvcNAQELBQADggEBAAaAJua7gVhAeKHpQqY4HwMKLKtTrypm8T66
l1rXtq3Zg8Lgz36zbt0iSjhpSpLsXJkkbt18EJy1k6+DVtzegC+dWV+ifG7fvgyz
O596l6oRHnGn8vWmWhY75xbRGu5l9T27vvAWxTIXar7oThONMV8wqFF6NE0G0jC0
FO3pbGQGzZ27hhAPQ9Ko0tduIVP6at6DquCMhGdBhAq0V37PzzhmmI5sfqnPoXhX
5rCvY6fy2zMrXXLOHn129WpeHySMROQ/d8U/HYS9qlLAgtwIpKiw7hOPysystFmN
1aE8OK0QYZLoRzwmMlAP/l3VFBWiGtSEsL/+vQcd+ma5lsUX2SA=
-----END CERTIFICATE-----
